target datalayout = "e-m:e-p270:32:32-p271:32:32-p272:64:64-i64:64-i128:128-f80:128-n8:16:32:64-S128"
target triple = "x86_64-pc-linux-gnu"

%struct.nameData = type { [64 x i8] }
%struct.HeapTupleData = type { i32, %struct.ItemPointerData, i32, ptr }
%struct.ItemPointerData = type { %struct.BlockIdData, i16 }
%struct.BlockIdData = type { i16, i16 }
%struct.FormData_pg_operator = type { i32, %struct.nameData, i32, i32, i8, i8, i8, i32, i32, i32, i32, i32, i32, i32, i32 }
%struct.HeapTupleHeaderData = type { %union.anon, %struct.ItemPointerData, i16, i16, i8, [0 x i8] }
%union.anon = type { %struct.HeapTupleFields }
%struct.HeapTupleFields = type { i32, i32, %union.anon.0 }
%union.anon.0 = type { i32 }

@.str.1 = private unnamed_addr constant [14 x i8] c"pg_operator.c\00", align 1
@.str.14 = private unnamed_addr constant [64 x i8] c"commutator operator %s is already the commutator of operator %s\00", align 1
@__func__.OperatorUpd = private unnamed_addr constant [12 x i8] c"OperatorUpd\00", align 1
@.str.15 = private unnamed_addr constant [64 x i8] c"commutator operator %s is already the commutator of operator %u\00", align 1
@.str.16 = private unnamed_addr constant [58 x i8] c"negator operator %s is already the negator of operator %s\00", align 1
@.str.17 = private unnamed_addr constant [58 x i8] c"negator operator %s is already the negator of operator %u\00", align 1

; Function Attrs: inlinehint nounwind uwtable
define internal ptr @GETSTRUCT(ptr noundef %0) #4 {
  %2 = alloca ptr, align 8
  store ptr %0, ptr %2, align 8
  %3 = load ptr, ptr %2, align 8
  %4 = getelementptr inbounds nuw %struct.HeapTupleData, ptr %3, i32 0, i32 3
  %5 = load ptr, ptr %4, align 8
  %6 = load ptr, ptr %2, align 8
  %7 = getelementptr inbounds nuw %struct.HeapTupleData, ptr %6, i32 0, i32 3
  %8 = load ptr, ptr %7, align 8
  %9 = getelementptr inbounds nuw %struct.HeapTupleHeaderData, ptr %8, i32 0, i32 4
  %10 = load i8, ptr %9, align 2
  %11 = zext i8 %10 to i32
  %12 = sext i32 %11 to i64
  %13 = getelementptr inbounds i8, ptr %5, i64 %12
  ret ptr %13
}

; Function Attrs: inlinehint nounwind uwtable
define internal i64 @ObjectIdGetDatum(i32 noundef %0) #4 {
  %2 = alloca i32, align 4
  store i32 %0, ptr %2, align 4
  %3 = load i32, ptr %2, align 4
  %4 = zext i32 %3 to i64
  ret i64 %4
}

; Function Attrs: nounwind uwtable
define dso_local void @OperatorUpd(i32 noundef %0, i32 noundef %1, i32 noundef %2, i1 noundef zeroext %3) #0 {
  %5 = alloca i32, align 4
  %6 = alloca i32, align 4
  %7 = alloca i32, align 4
  %8 = alloca i8, align 1
  %9 = alloca ptr, align 8
  %10 = alloca ptr, align 8
  %11 = alloca ptr, align 8
  %12 = alloca i8, align 1
  %13 = alloca ptr, align 8
  %14 = alloca ptr, align 8
  %15 = alloca i8, align 1
  %16 = alloca ptr, align 8
  store i32 %0, ptr %5, align 4
  store i32 %1, ptr %6, align 4
  store i32 %2, ptr %7, align 4
  %17 = zext i1 %3 to i8
  store i8 %17, ptr %8, align 1
  call void @llvm.lifetime.start.p0(i64 8, ptr %9) #7
  call void @llvm.lifetime.start.p0(i64 8, ptr %10) #7
  %18 = load i8, ptr %8, align 1, !range !4, !noundef !5
  %19 = trunc i8 %18 to i1
  br i1 %19, label %21, label %20

20:                                               ; preds = %4
  call void @CommandCounterIncrement()
  br label %21

21:                                               ; preds = %20, %4
  %22 = call ptr @table_open(i32 noundef 2617, i32 noundef 3)
  store ptr %22, ptr %9, align 8
  %23 = load i32, ptr %6, align 4
  %24 = icmp ne i32 %23, 0
  br i1 %24, label %25, label %29

25:                                               ; preds = %21
  %26 = load i32, ptr %6, align 4
  %27 = call i64 @ObjectIdGetDatum(i32 noundef %26)
  %28 = call ptr @SearchSysCacheCopy(i32 noundef 40, i64 noundef %27, i64 noundef 0, i64 noundef 0, i64 noundef 0)
  store ptr %28, ptr %10, align 8
  br label %30

29:                                               ; preds = %21
  store ptr null, ptr %10, align 8
  br label %30

30:                                               ; preds = %29, %25
  %31 = load ptr, ptr %10, align 8
  %32 = icmp ne ptr %31, null
  br i1 %32, label %33, label %118

33:                                               ; preds = %30
  call void @llvm.lifetime.start.p0(i64 8, ptr %11) #7
  %34 = load ptr, ptr %10, align 8
  %35 = call ptr @GETSTRUCT(ptr noundef %34)
  store ptr %35, ptr %11, align 8
  call void @llvm.lifetime.start.p0(i64 1, ptr %12) #7
  store i8 0, ptr %12, align 1
  %36 = load i8, ptr %8, align 1, !range !4, !noundef !5
  %37 = trunc i8 %36 to i1
  br i1 %37, label %38, label %46

38:                                               ; preds = %33
  %39 = load ptr, ptr %11, align 8
  %40 = getelementptr inbounds nuw %struct.FormData_pg_operator, ptr %39, i32 0, i32 10
  %41 = load i32, ptr %40, align 4
  %42 = icmp ne i32 %41, 0
  br i1 %42, label %43, label %46

43:                                               ; preds = %38
  %44 = load ptr, ptr %11, align 8
  %45 = getelementptr inbounds nuw %struct.FormData_pg_operator, ptr %44, i32 0, i32 10
  store i32 0, ptr %45, align 4
  store i8 1, ptr %12, align 1
  br label %109

46:                                               ; preds = %38, %33
  %47 = load i8, ptr %8, align 1, !range !4, !noundef !5
  %48 = trunc i8 %47 to i1
  br i1 %48, label %108, label %49

49:                                               ; preds = %46
  %50 = load ptr, ptr %11, align 8
  %51 = getelementptr inbounds nuw %struct.FormData_pg_operator, ptr %50, i32 0, i32 10
  %52 = load i32, ptr %51, align 4
  %53 = load i32, ptr %5, align 4
  %54 = icmp ne i32 %52, %53
  br i1 %54, label %55, label %108

55:                                               ; preds = %49
  %56 = load ptr, ptr %11, align 8
  %57 = getelementptr inbounds nuw %struct.FormData_pg_operator, ptr %56, i32 0, i32 10
  %58 = load i32, ptr %57, align 4
  %59 = icmp ne i32 %58, 0
  br i1 %59, label %60, label %104

60:                                               ; preds = %55
  call void @llvm.lifetime.start.p0(i64 8, ptr %13) #7
  %61 = load ptr, ptr %11, align 8
  %62 = getelementptr inbounds nuw %struct.FormData_pg_operator, ptr %61, i32 0, i32 10
  %63 = load i32, ptr %62, align 4
  %64 = call ptr @get_opname(i32 noundef %63)
  store ptr %64, ptr %13, align 8
  %65 = load ptr, ptr %13, align 8
  %66 = icmp ne ptr %65, null
  br i1 %66, label %67, label %84

67:                                               ; preds = %60
  br label %68

68:                                               ; preds = %67
  br i1 true, label %69, label %71

69:                                               ; preds = %68
  %70 = call zeroext i1 @errstart_cold(i32 noundef 21, ptr noundef null) #8
  br i1 %70, label %73, label %81

71:                                               ; preds = %68
  %72 = call zeroext i1 @errstart(i32 noundef 21, ptr noundef null)
  br i1 %72, label %73, label %81

73:                                               ; preds = %71, %69
  %74 = call i32 @errcode(i32 noundef 50724996)
  %75 = load ptr, ptr %11, align 8
  %76 = getelementptr inbounds nuw %struct.FormData_pg_operator, ptr %75, i32 0, i32 1
  %77 = getelementptr inbounds nuw %struct.nameData, ptr %76, i32 0, i32 0
  %78 = getelementptr inbounds [64 x i8], ptr %77, i64 0, i64 0
  %79 = load ptr, ptr %13, align 8
  %80 = call i32 (ptr, ...) @errmsg(ptr noundef @.str.14, ptr noundef %78, ptr noundef %79)
  call void @errfinish(ptr noundef @.str.1, i32 noundef 740, ptr noundef @__func__.OperatorUpd)
  br label %81

81:                                               ; preds = %73, %71, %69
  unreachable

82:                                               ; No predecessors!
  br label %83

83:                                               ; preds = %82
  br label %103

84:                                               ; preds = %60
  br label %85

85:                                               ; preds = %84
  br i1 true, label %86, label %88

86:                                               ; preds = %85
  %87 = call zeroext i1 @errstart_cold(i32 noundef 21, ptr noundef null) #8
  br i1 %87, label %90, label %100

88:                                               ; preds = %85
  %89 = call zeroext i1 @errstart(i32 noundef 21, ptr noundef null)
  br i1 %89, label %90, label %100

90:                                               ; preds = %88, %86
  %91 = call i32 @errcode(i32 noundef 50724996)
  %92 = load ptr, ptr %11, align 8
  %93 = getelementptr inbounds nuw %struct.FormData_pg_operator, ptr %92, i32 0, i32 1
  %94 = getelementptr inbounds nuw %struct.nameData, ptr %93, i32 0, i32 0
  %95 = getelementptr inbounds [64 x i8], ptr %94, i64 0, i64 0
  %96 = load ptr, ptr %11, align 8
  %97 = getelementptr inbounds nuw %struct.FormData_pg_operator, ptr %96, i32 0, i32 10
  %98 = load i32, ptr %97, align 4
  %99 = call i32 (ptr, ...) @errmsg(ptr noundef @.str.15, ptr noundef %95, i32 noundef %98)
  call void @errfinish(ptr noundef @.str.1, i32 noundef 745, ptr noundef @__func__.OperatorUpd)
  br label %100

100:                                              ; preds = %90, %88, %86
  unreachable

101:                                              ; No predecessors!
  br label %102

102:                                              ; preds = %101
  br label %103

103:                                              ; preds = %102, %83
  call void @llvm.lifetime.end.p0(i64 8, ptr %13) #7
  br label %104

104:                                              ; preds = %103, %55
  %105 = load i32, ptr %5, align 4
  %106 = load ptr, ptr %11, align 8
  %107 = getelementptr inbounds nuw %struct.FormData_pg_operator, ptr %106, i32 0, i32 10
  store i32 %105, ptr %107, align 4
  store i8 1, ptr %12, align 1
  br label %108

108:                                              ; preds = %104, %49, %46
  br label %109

109:                                              ; preds = %108, %43
  %110 = load i8, ptr %12, align 1, !range !4, !noundef !5
  %111 = trunc i8 %110 to i1
  br i1 %111, label %112, label %117

112:                                              ; preds = %109
  %113 = load ptr, ptr %9, align 8
  %114 = load ptr, ptr %10, align 8
  %115 = getelementptr inbounds nuw %struct.HeapTupleData, ptr %114, i32 0, i32 1
  %116 = load ptr, ptr %10, align 8
  call void @CatalogTupleUpdate(ptr noundef %113, ptr noundef %115, ptr noundef %116)
  call void @CommandCounterIncrement()
  br label %117

117:                                              ; preds = %112, %109
  call void @llvm.lifetime.end.p0(i64 1, ptr %12) #7
  call void @llvm.lifetime.end.p0(i64 8, ptr %11) #7
  br label %118

118:                                              ; preds = %117, %30
  %119 = load i32, ptr %7, align 4
  %120 = icmp ne i32 %119, 0
  br i1 %120, label %121, label %125

121:                                              ; preds = %118
  %122 = load i32, ptr %7, align 4
  %123 = call i64 @ObjectIdGetDatum(i32 noundef %122)
  %124 = call ptr @SearchSysCacheCopy(i32 noundef 40, i64 noundef %123, i64 noundef 0, i64 noundef 0, i64 noundef 0)
  store ptr %124, ptr %10, align 8
  br label %126

125:                                              ; preds = %118
  store ptr null, ptr %10, align 8
  br label %126

126:                                              ; preds = %125, %121
  %127 = load ptr, ptr %10, align 8
  %128 = icmp ne ptr %127, null
  br i1 %128, label %129, label %218

129:                                              ; preds = %126
  call void @llvm.lifetime.start.p0(i64 8, ptr %14) #7
  %130 = load ptr, ptr %10, align 8
  %131 = call ptr @GETSTRUCT(ptr noundef %130)
  store ptr %131, ptr %14, align 8
  call void @llvm.lifetime.start.p0(i64 1, ptr %15) #7
  store i8 0, ptr %15, align 1
  %132 = load i8, ptr %8, align 1, !range !4, !noundef !5
  %133 = trunc i8 %132 to i1
  br i1 %133, label %134, label %142

134:                                              ; preds = %129
  %135 = load ptr, ptr %14, align 8
  %136 = getelementptr inbounds nuw %struct.FormData_pg_operator, ptr %135, i32 0, i32 11
  %137 = load i32, ptr %136, align 4
  %138 = icmp ne i32 %137, 0
  br i1 %138, label %139, label %142

139:                                              ; preds = %134
  %140 = load ptr, ptr %14, align 8
  %141 = getelementptr inbounds nuw %struct.FormData_pg_operator, ptr %140, i32 0, i32 11
  store i32 0, ptr %141, align 4
  store i8 1, ptr %15, align 1
  br label %205

142:                                              ; preds = %134, %129
  %143 = load i8, ptr %8, align 1, !range !4, !noundef !5
  %144 = trunc i8 %143 to i1
  br i1 %144, label %204, label %145

145:                                              ; preds = %142
  %146 = load ptr, ptr %14, align 8
  %147 = getelementptr inbounds nuw %struct.FormData_pg_operator, ptr %146, i32 0, i32 11
  %148 = load i32, ptr %147, align 4
  %149 = load i32, ptr %5, align 4
  %150 = icmp ne i32 %148, %149
  br i1 %150, label %151, label %204

151:                                              ; preds = %145
  %152 = load ptr, ptr %14, align 8
  %153 = getelementptr inbounds nuw %struct.FormData_pg_operator, ptr %152, i32 0, i32 11
  %154 = load i32, ptr %153, align 4
  %155 = icmp ne i32 %154, 0
  br i1 %155, label %156, label %200

156:                                              ; preds = %151
  call void @llvm.lifetime.start.p0(i64 8, ptr %16) #7
  %157 = load ptr, ptr %14, align 8
  %158 = getelementptr inbounds nuw %struct.FormData_pg_operator, ptr %157, i32 0, i32 11
  %159 = load i32, ptr %158, align 4
  %160 = call ptr @get_opname(i32 noundef %159)
  store ptr %160, ptr %16, align 8
  %161 = load ptr, ptr %16, align 8
  %162 = icmp ne ptr %161, null
  br i1 %162, label %163, label %180

163:                                              ; preds = %156
  br label %164

164:                                              ; preds = %163
  br i1 true, label %165, label %167

165:                                              ; preds = %164
  %166 = call zeroext i1 @errstart_cold(i32 noundef 21, ptr noundef null) #8
  br i1 %166, label %169, label %177

167:                                              ; preds = %164
  %168 = call zeroext i1 @errstart(i32 noundef 21, ptr noundef null)
  br i1 %168, label %169, label %177

169:                                              ; preds = %167, %165
  %170 = call i32 @errcode(i32 noundef 50724996)
  %171 = load ptr, ptr %14, align 8
  %172 = getelementptr inbounds nuw %struct.FormData_pg_operator, ptr %171, i32 0, i32 1
  %173 = getelementptr inbounds nuw %struct.nameData, ptr %172, i32 0, i32 0
  %174 = getelementptr inbounds [64 x i8], ptr %173, i64 0, i64 0
  %175 = load ptr, ptr %16, align 8
  %176 = call i32 (ptr, ...) @errmsg(ptr noundef @.str.16, ptr noundef %174, ptr noundef %175)
  call void @errfinish(ptr noundef @.str.1, i32 noundef 808, ptr noundef @__func__.OperatorUpd)
  br label %177

177:                                              ; preds = %169, %167, %165
  unreachable

178:                                              ; No predecessors!
  br label %179

179:                                              ; preds = %178
  br label %199

180:                                              ; preds = %156
  br label %181

181:                                              ; preds = %180
  br i1 true, label %182, label %184

182:                                              ; preds = %181
  %183 = call zeroext i1 @errstart_cold(i32 noundef 21, ptr noundef null) #8
  br i1 %183, label %186, label %196

184:                                              ; preds = %181
  %185 = call zeroext i1 @errstart(i32 noundef 21, ptr noundef null)
  br i1 %185, label %186, label %196

186:                                              ; preds = %184, %182
  %187 = call i32 @errcode(i32 noundef 50724996)
  %188 = load ptr, ptr %14, align 8
  %189 = getelementptr inbounds nuw %struct.FormData_pg_operator, ptr %188, i32 0, i32 1
  %190 = getelementptr inbounds nuw %struct.nameData, ptr %189, i32 0, i32 0
  %191 = getelementptr inbounds [64 x i8], ptr %190, i64 0, i64 0
  %192 = load ptr, ptr %14, align 8
  %193 = getelementptr inbounds nuw %struct.FormData_pg_operator, ptr %192, i32 0, i32 11
  %194 = load i32, ptr %193, align 4
  %195 = call i32 (ptr, ...) @errmsg(ptr noundef @.str.17, ptr noundef %191, i32 noundef %194)
  call void @errfinish(ptr noundef @.str.1, i32 noundef 813, ptr noundef @__func__.OperatorUpd)
  br label %196

196:                                              ; preds = %186, %184, %182
  unreachable

197:                                              ; No predecessors!
  br label %198

198:                                              ; preds = %197
  br label %199

199:                                              ; preds = %198, %179
  call void @llvm.lifetime.end.p0(i64 8, ptr %16) #7
  br label %200

200:                                              ; preds = %199, %151
  %201 = load i32, ptr %5, align 4
  %202 = load ptr, ptr %14, align 8
  %203 = getelementptr inbounds nuw %struct.FormData_pg_operator, ptr %202, i32 0, i32 11
  store i32 %201, ptr %203, align 4
  store i8 1, ptr %15, align 1
  br label %204

204:                                              ; preds = %200, %145, %142
  br label %205

205:                                              ; preds = %204, %139
  %206 = load i8, ptr %15, align 1, !range !4, !noundef !5
  %207 = trunc i8 %206 to i1
  br i1 %207, label %208, label %217

208:                                              ; preds = %205
  %209 = load ptr, ptr %9, align 8
  %210 = load ptr, ptr %10, align 8
  %211 = getelementptr inbounds nuw %struct.HeapTupleData, ptr %210, i32 0, i32 1
  %212 = load ptr, ptr %10, align 8
  call void @CatalogTupleUpdate(ptr noundef %209, ptr noundef %211, ptr noundef %212)
  %213 = load i8, ptr %8, align 1, !range !4, !noundef !5
  %214 = trunc i8 %213 to i1
  br i1 %214, label %215, label %216

215:                                              ; preds = %208
  call void @CommandCounterIncrement()
  br label %216

216:                                              ; preds = %215, %208
  br label %217

217:                                              ; preds = %216, %205
  call void @llvm.lifetime.end.p0(i64 1, ptr %15) #7
  call void @llvm.lifetime.end.p0(i64 8, ptr %14) #7
  br label %218

218:                                              ; preds = %217, %126
  %219 = load ptr, ptr %9, align 8
  call void @table_close(ptr noundef %219, i32 noundef 3)
  call void @llvm.lifetime.end.p0(i64 8, ptr %10) #7
  call void @llvm.lifetime.end.p0(i64 8, ptr %9) #7
  ret void
}