; Function Attrs: nounwind uwtable
define dso_local void @OperatorUpd(i32 noundef %0, i32 noundef %1, i32 noundef %2, i1 noundef zeroext %3) local_unnamed_addr #0 {
  br i1 %3, label %6, label %5

5:                                                ; preds = %4
  tail call void @CommandCounterIncrement() #9
  br label %6

6:                                                ; preds = %5, %4
  %7 = tail call ptr @table_open(i32 noundef 2617, i32 noundef 3) #9
  %.not = icmp eq i32 %1, 0
  br i1 %.not, label %.thread, label %8

8:                                                ; preds = %6
  %9 = zext i32 %1 to i64
  %10 = tail call ptr @SearchSysCacheCopy(i32 noundef 40, i64 noundef %9, i64 noundef 0, i64 noundef 0, i64 noundef 0) #9
  %.not58 = icmp eq ptr %10, null
  br i1 %.not58, label %.thread, label %11

11:                                               ; preds = %8
  %12 = getelementptr i8, ptr %10, i64 16
  %.0.val = load ptr, ptr %12, align 8
  %13 = getelementptr inbounds nuw i8, ptr %.0.val, i64 22
  %14 = load i8, ptr %13, align 2
  %15 = zext i8 %14 to i64
  %16 = getelementptr inbounds nuw i8, ptr %.0.val, i64 %15
  %17 = getelementptr inbounds nuw i8, ptr %16, i64 92
  %18 = load i32, ptr %17, align 4
  br i1 %3, label %19, label %.critedge

19:                                               ; preds = %11
  %.not59 = icmp eq i32 %18, 0
  br i1 %.not59, label %.thread, label %.critedge70

.critedge:                                        ; preds = %11
  %.not60 = icmp eq i32 %18, %0
  br i1 %.not60, label %.thread, label %20

20:                                               ; preds = %.critedge
  %.not61 = icmp eq i32 %18, 0
  br i1 %.not61, label %.critedge70, label %21

21:                                               ; preds = %20
  %22 = tail call ptr @get_opname(i32 noundef %18) #9
  %.not62 = icmp eq ptr %22, null
  %23 = tail call zeroext i1 @errstart_cold(i32 noundef 21, ptr noundef null) #10
  tail call void @llvm.assume(i1 %23)
  %24 = tail call i32 @errcode(i32 noundef 50724996) #9
  %25 = getelementptr inbounds nuw i8, ptr %16, i64 4
  br i1 %.not62, label %28, label %26

26:                                               ; preds = %21
  %27 = tail call i32 (ptr, ...) @errmsg(ptr noundef nonnull @.str.14, ptr noundef nonnull %25, ptr noundef nonnull %22) #9
  tail call void @errfinish(ptr noundef nonnull @.str.1, i32 noundef 740, ptr noundef nonnull @__func__.OperatorUpd) #9
  unreachable

28:                                               ; preds = %21
  %29 = load i32, ptr %17, align 4
  %30 = tail call i32 (ptr, ...) @errmsg(ptr noundef nonnull @.str.15, ptr noundef nonnull %25, i32 noundef %29) #9
  tail call void @errfinish(ptr noundef nonnull @.str.1, i32 noundef 745, ptr noundef nonnull @__func__.OperatorUpd) #9
  unreachable

.critedge70:                                      ; preds = %20, %19
  %.sink = phi i32 [ 0, %19 ], [ %0, %20 ]
  store i32 %.sink, ptr %17, align 4
  %31 = getelementptr inbounds nuw i8, ptr %10, i64 4
  tail call void @CatalogTupleUpdate(ptr noundef %7, ptr noundef nonnull %31, ptr noundef nonnull %10) #9
  tail call void @CommandCounterIncrement() #9
  br label %.thread

.thread:                                          ; preds = %6, %19, %.critedge70, %.critedge, %8
  %.not63 = icmp eq i32 %2, 0
  br i1 %.not63, label %.thread77, label %32

32:                                               ; preds = %.thread
  %33 = zext i32 %2 to i64
  %34 = tail call ptr @SearchSysCacheCopy(i32 noundef 40, i64 noundef %33, i64 noundef 0, i64 noundef 0, i64 noundef 0) #9
  %.not64 = icmp eq ptr %34, null
  br i1 %.not64, label %.thread77, label %35

35:                                               ; preds = %32
  %36 = getelementptr i8, ptr %34, i64 16
  %.1.val = load ptr, ptr %36, align 8
  %37 = getelementptr inbounds nuw i8, ptr %.1.val, i64 22
  %38 = load i8, ptr %37, align 2
  %39 = zext i8 %38 to i64
  %40 = getelementptr inbounds nuw i8, ptr %.1.val, i64 %39
  %41 = getelementptr inbounds nuw i8, ptr %40, i64 96
  %42 = load i32, ptr %41, align 4
  br i1 %3, label %43, label %.critedge72

43:                                               ; preds = %35
  %.not65 = icmp eq i32 %42, 0
  br i1 %.not65, label %.thread77, label %56

.critedge72:                                      ; preds = %35
  %.not66 = icmp eq i32 %42, %0
  br i1 %.not66, label %.thread77, label %44

44:                                               ; preds = %.critedge72
  %.not67 = icmp eq i32 %42, 0
  br i1 %.not67, label %.critedge74, label %45

45:                                               ; preds = %44
  %46 = tail call ptr @get_opname(i32 noundef %42) #9
  %.not68 = icmp eq ptr %46, null
  %47 = tail call zeroext i1 @errstart_cold(i32 noundef 21, ptr noundef null) #10
  tail call void @llvm.assume(i1 %47)
  %48 = tail call i32 @errcode(i32 noundef 50724996) #9
  %49 = getelementptr inbounds nuw i8, ptr %40, i64 4
  br i1 %.not68, label %52, label %50

50:                                               ; preds = %45
  %51 = tail call i32 (ptr, ...) @errmsg(ptr noundef nonnull @.str.16, ptr noundef nonnull %49, ptr noundef nonnull %46) #9
  tail call void @errfinish(ptr noundef nonnull @.str.1, i32 noundef 808, ptr noundef nonnull @__func__.OperatorUpd) #9
  unreachable

52:                                               ; preds = %45
  %53 = load i32, ptr %41, align 4
  %54 = tail call i32 (ptr, ...) @errmsg(ptr noundef nonnull @.str.17, ptr noundef nonnull %49, i32 noundef %53) #9
  tail call void @errfinish(ptr noundef nonnull @.str.1, i32 noundef 813, ptr noundef nonnull @__func__.OperatorUpd) #9
  unreachable

.critedge74:                                      ; preds = %44
  store i32 %0, ptr %41, align 4
  %55 = getelementptr inbounds nuw i8, ptr %34, i64 4
  tail call void @CatalogTupleUpdate(ptr noundef %7, ptr noundef nonnull %55, ptr noundef nonnull %34) #9
  br label %.thread77

56:                                               ; preds = %43
  store i32 0, ptr %41, align 4
  %57 = getelementptr inbounds nuw i8, ptr %34, i64 4
  tail call void @CatalogTupleUpdate(ptr noundef %7, ptr noundef nonnull %57, ptr noundef nonnull %34) #9
  tail call void @CommandCounterIncrement() #9
  br label %.thread77

.thread77:                                        ; preds = %.thread, %.critedge74, %43, %56, %.critedge72, %32
  tail call void @table_close(ptr noundef %7, i32 noundef 3) #9
  ret void
}